; ModuleID = '43/738.c'
source_filename = "43/738.c"
target datalayout = "e-m:e-p270:32:32-p271:32:32-p272:64:64-i64:64-f80:128-n8:16:32:64-S128"
target triple = "x86_64-pc-linux-gnu"

@.str = private unnamed_addr constant [3 x i8] c"%d\00", align 1
@.str.1 = private unnamed_addr constant [7 x i8] c"%d %d\0A\00", align 1

; Function Attrs: noinline nounwind uwtable
define dso_local i32 @ss(i32 %0) #0 {
  %2 = alloca i32, align 4
  %3 = alloca i32, align 4
  %4 = alloca double, align 8
  %5 = alloca i32, align 4
  %6 = alloca i32, align 4
  store i32 %0, i32* %3, align 4
  store i32 0, i32* %6, align 4
  %7 = load i32, i32* %3, align 4
  %8 = sitofp i32 %7 to double
  %9 = call double @sqrt(double %8) #3
  store double %9, double* %4, align 8
  %10 = load i32, i32* %3, align 4
  %11 = srem i32 %10, 2
  %12 = icmp eq i32 %11, 0
  br i1 %12, label %13, label %14

13:                                               ; preds = %1
  store i32 0, i32* %2, align 4
  br label %35

14:                                               ; preds = %1
  store i32 3, i32* %5, align 4
  br label %15

15:                                               ; preds = %27, %14
  %16 = load i32, i32* %5, align 4
  %17 = sitofp i32 %16 to double
  %18 = load double, double* %4, align 8
  %19 = fcmp ole double %17, %18
  br i1 %19, label %20, label %30

20:                                               ; preds = %15
  %21 = load i32, i32* %3, align 4
  %22 = load i32, i32* %5, align 4
  %23 = srem i32 %21, %22
  %24 = icmp eq i32 %23, 0
  br i1 %24, label %25, label %26

25:                                               ; preds = %20
  store i32 1, i32* %6, align 4
  br label %30

26:                                               ; preds = %20
  br label %27

27:                                               ; preds = %26
  %28 = load i32, i32* %5, align 4
  %29 = add nsw i32 %28, 1
  store i32 %29, i32* %5, align 4
  br label %15

30:                                               ; preds = %25, %15
  %31 = load i32, i32* %6, align 4
  %32 = icmp eq i32 %31, 1
  br i1 %32, label %33, label %34

33:                                               ; preds = %30
  store i32 0, i32* %2, align 4
  br label %35

34:                                               ; preds = %30
  store i32 1, i32* %2, align 4
  br label %35

35:                                               ; preds = %34, %33, %13
  %36 = load i32, i32* %2, align 4
  ret i32 %36
}

; Function Attrs: nounwind
declare dso_local double @sqrt(double) #1

; Function Attrs: noinline nounwind uwtable
define dso_local i32 @main() #0 {
  %1 = alloca i32, align 4
  %2 = alloca i32, align 4
  %3 = alloca i32, align 4
  %4 = alloca i32, align 4
  %5 = alloca i32, align 4
  %6 = alloca double, align 8
  %7 = alloca i32, align 4
  %8 = alloca i32, align 4
  %9 = alloca i32, align 4
  store i32 0, i32* %1, align 4
  %10 = call i32 (i8*, ...) @__isoc99_scanf(i8* getelementptr inbounds ([3 x i8], [3 x i8]* @.str, i64 0, i64 0), i32* %9)
  %11 = load i32, i32* %9, align 4
  %12 = sdiv i32 %11, 2
  store i32 %12, i32* %3, align 4
  store i32 3, i32* %7, align 4
  br label %13

13:                                               ; preds = %34, %0
  %14 = load i32, i32* %7, align 4
  %15 = load i32, i32* %3, align 4
  %16 = icmp sle i32 %14, %15
  br i1 %16, label %17, label %37

17:                                               ; preds = %13
  %18 = load i32, i32* %7, align 4
  %19 = call i32 @ss(i32 %18)
  %20 = icmp ne i32 %19, 0
  br i1 %20, label %21, label %33

21:                                               ; preds = %17
  %22 = load i32, i32* %9, align 4
  %23 = load i32, i32* %7, align 4
  %24 = sub nsw i32 %22, %23
  %25 = call i32 @ss(i32 %24)
  %26 = icmp ne i32 %25, 0
  br i1 %26, label %27, label %33

27:                                               ; preds = %21
  %28 = load i32, i32* %7, align 4
  %29 = load i32, i32* %9, align 4
  %30 = load i32, i32* %7, align 4
  %31 = sub nsw i32 %29, %30
  %32 = call i32 (i8*, ...) @printf(i8* getelementptr inbounds ([7 x i8], [7 x i8]* @.str.1, i64 0, i64 0), i32 %28, i32 %31)
  br label %33

33:                                               ; preds = %27, %21, %17
  br label %34

34:                                               ; preds = %33
  %35 = load i32, i32* %7, align 4
  %36 = add nsw i32 %35, 2
  store i32 %36, i32* %7, align 4
  br label %13

37:                                               ; preds = %13
  ret i32 0
}

declare dso_local i32 @__isoc99_scanf(i8*, ...) #2

declare dso_local i32 @printf(i8*, ...) #2


!llvm.module.flags = !{!0}
!llvm.ident = !{!1}

!0 = !{i32 1, !"wchar_size", i32 4}
!1 = !{!"clang version 10.0.0-4ubuntu1 "}
